Certificate:
    Data:
        Version: 3 (0x2)
        Serial Number: 1 (0x1)
    Signature Algorithm: sha256WithRSAEncryption
        Issuer: CN=OpenConext Demo CA, O=OpenConext, C=NL
        Validity
            Not Before: Sep 19 13:24:54 2016 GMT
            Not After : Sep 19 13:24:54 2019 GMT
        Subject: C=NL, O=OpenConext, CN=*.ozonconext.nl
        Subject Public Key Info:
            Public Key Algorithm: rsaEncryption
                Public-Key: (2048 bit)
                Modulus:
                    00:b1:5b:5e:55:6c:51:2b:6c:ef:1c:03:9d:93:d1:
                    21:40:8a:1d:90:88:90:c4:ce:e5:d8:fa:3f:f5:ff:
                    80:93:5f:85:f8:15:98:17:9f:ef:99:a7:33:ca:cf:
                    60:ea:63:b5:f2:ab:d5:51:c8:59:99:89:ed:33:0d:
                    ec:b6:85:17:3a:60:a4:7c:f9:6b:d7:9d:fc:63:b7:
                    72:c9:e8:81:74:77:1f:fd:37:0b:0e:ec:a2:3d:8d:
                    83:55:8d:b4:5a:c0:90:fa:da:59:97:ac:ee:08:99:
                    af:51:bf:54:f3:e2:b6:66:90:b8:10:f4:ba:92:dc:
                    03:d4:3d:90:e1:39:7f:56:c0:34:43:07:06:80:4b:
                    45:6a:82:b1:0f:65:ad:73:eb:b8:55:0b:4b:f7:44:
                    d2:36:6c:29:4c:c6:83:a6:71:47:b1:56:8b:ba:31:
                    d0:84:63:dc:72:a9:73:2c:5e:c7:ca:ec:c6:01:ad:
                    7d:51:20:12:ba:85:c9:e9:23:76:30:1a:80:5b:d8:
                    86:90:79:53:27:12:6f:21:25:5f:67:ea:ea:62:da:
                    f8:13:72:a0:b5:03:54:c1:06:41:e7:08:9d:ed:8f:
                    47:33:9f:26:95:88:8b:17:da:91:b1:42:05:2d:ed:
                    2e:72:4e:46:04:5e:2c:91:09:fd:7c:bd:3f:6e:f7:
                    e1:e5
                Exponent: 65537 (0x10001)
        X509v3 extensions:
            X509v3 Subject Key Identifier: 
                5D:96:B6:C2:36:2E:A0:10:BA:B8:29:1A:34:AA:FD:59:8E:9F:B3:F1
            X509v3 Authority Key Identifier: 
                keyid:53:87:64:40:08:05:35:2B:01:6D:3B:79:43:B0:66:C7:E7:9C:CE:05
                DirName:/CN=OpenConext Demo CA/O=OpenConext/C=NL
                serial:00

            X509v3 Basic Constraints: critical
                CA:FALSE, pathlen:0
            X509v3 Key Usage: critical
                Digital Signature, Key Encipherment
            X509v3 Extended Key Usage: critical
                TLS Web Server Authentication
    Signature Algorithm: sha256WithRSAEncryption
         27:4b:6b:dc:f5:94:01:76:40:af:39:09:00:fb:18:8f:08:13:
         54:35:ac:9c:c7:02:32:60:ba:a5:52:8c:4b:3d:07:48:7e:11:
         05:b2:ab:49:41:b3:09:43:81:d3:08:5f:ea:38:a0:7d:30:93:
         8e:21:fb:ca:35:f1:6e:13:ba:ab:4e:5d:e4:d3:2d:82:c2:93:
         ba:1a:15:2c:06:fa:d1:a4:a7:8e:d4:2e:25:7c:0f:b1:54:12:
         dc:90:bd:6f:09:75:e0:e2:80:de:69:92:cd:09:63:66:13:15:
         74:52:fb:bc:95:48:86:20:ee:f3:75:c2:f1:e8:f7:b2:17:09:
         0d:3b:ec:63:28:70:a3:06:1e:36:b8:c5:48:a8:d0:28:5e:ee:
         5f:f9:42:b1:ec:d6:37:d4:2b:cd:87:18:06:10:98:b3:57:62:
         97:c7:07:a8:c3:bd:14:ec:15:06:55:81:ac:21:34:ec:20:23:
         e3:9a:f7:bb:ca:93:06:13:de:df:cd:7f:47:33:b6:4e:72:be:
         91:dc:dd:01:74:5b:80:57:75:89:68:a6:c3:e8:41:ee:93:71:
         0e:29:5b:a9:d4:2b:ff:57:39:05:f2:43:ef:5e:c0:ca:92:1a:
         e6:fe:45:d9:97:62:7a:61:a4:8c:1a:ae:22:c8:c2:6e:7f:8c:
         80:45:66:ea:71:0b:ce:f5:ff:c8:c6:a7:7c:f3:9a:38:b8:ac:
         bd:75:87:80:61:ac:09:32:90:5b:7f:eb:d8:0d:48:15:4e:b1:
         9b:15:03:9b:3c:9e:72:dd:d1:a0:c6:2f:cb:38:c9:bf:e0:b6:
         17:50:8a:b6:81:b8:9f:6c:9e:a8:d9:8d:35:a5:3d:25:b4:cf:
         19:43:02:08:07:97:05:f2:74:fb:98:1e:fd:a7:82:93:f3:7e:
         f6:07:05:76:ed:4b:ee:3e:55:a2:93:60:a4:b1:02:87:6f:e6:
         a7:ec:86:25:b0:ea:53:43:08:3c:91:8f:cb:0e:44:36:2f:4c:
         c2:34:d1:36:b9:d9:da:39:c7:1f:d2:62:92:ca:40:1d:94:6b:
         4c:45:7a:19:db:77:ae:ae:6a:ef:a6:25:32:23:89:50:ad:de:
         ff:1f:a5:e9:b0:43:54:d2:f9:50:de:e8:3b:35:c3:5d:19:bd:
         3c:f1:8b:ee:08:5e:c3:96:15:c1:09:5b:f2:95:1d:b2:f7:9a:
         11:8f:13:2c:7f:34:1d:68:13:b1:1e:8d:c1:7a:f9:96:d4:d6:
         9c:c9:d9:bd:cf:b5:ea:cb:cd:3f:49:ae:eb:74:15:49:3a:81:
         0b:2e:33:1f:fb:d5:69:9e:e1:ed:a3:a3:9b:4a:7d:9d:e5:b4:
         d9:25:1d:c2:20:ee:cc:08
-----BEGIN CERTIFICATE-----
MIIEuzCCAqOgAwIBAgIBATANBgkqhkiG9w0BAQsFADA/MRswGQYDVQQDDBJPcGVu
Q29uZXh0IERlbW8gQ0ExEzARBgNVBAoMCk9wZW5Db25leHQxCzAJBgNVBAYTAk5M
MB4XDTE2MDkxOTEzMjQ1NFoXDTE5MDkxOTEzMjQ1NFowPDELMAkGA1UEBhMCTkwx
EzARBgNVBAoMCk9wZW5Db25leHQxGDAWBgNVBAMMDyoub3pvbmNvbmV4dC5ubDCC
ASIwDQYJKoZIhvcNAQEBBQADggEPADCCAQoCggEBALFbXlVsUSts7xwDnZPRIUCK
HZCIkMTO5dj6P/X/gJNfhfgVmBef75mnM8rPYOpjtfKr1VHIWZmJ7TMN7LaFFzpg
pHz5a9ed/GO3csnogXR3H/03Cw7soj2Ng1WNtFrAkPraWZes7giZr1G/VPPitmaQ
uBD0upLcA9Q9kOE5f1bANEMHBoBLRWqCsQ9lrXPruFULS/dE0jZsKUzGg6ZxR7FW
i7ox0IRj3HKpcyxex8rsxgGtfVEgErqFyekjdjAagFvYhpB5UycSbyElX2fq6mLa
+BNyoLUDVMEGQecIne2PRzOfJpWIixfakbFCBS3tLnJORgReLJEJ/Xy9P2734eUC
AwEAAaOBxDCBwTAdBgNVHQ4EFgQUXZa2wjYuoBC6uCkaNKr9WY6fs/EwZwYDVR0j
BGAwXoAUU4dkQAgFNSsBbTt5Q7Bmx+eczgWhQ6RBMD8xGzAZBgNVBAMMEk9wZW5D
b25leHQgRGVtbyBDQTETMBEGA1UECgwKT3BlbkNvbmV4dDELMAkGA1UEBhMCTkyC
AQAwDwYDVR0TAQH/BAUwAwIBADAOBgNVHQ8BAf8EBAMCBaAwFgYDVR0lAQH/BAww
CgYIKwYBBQUHAwEwDQYJKoZIhvcNAQELBQADggIBACdLa9z1lAF2QK85CQD7GI8I
E1Q1rJzHAjJguqVSjEs9B0h+EQWyq0lBswlDgdMIX+o4oH0wk44h+8o18W4TuqtO
XeTTLYLCk7oaFSwG+tGkp47ULiV8D7FUEtyQvW8JdeDigN5pks0JY2YTFXRS+7yV
SIYg7vN1wvHo97IXCQ077GMocKMGHja4xUio0Che7l/5QrHs1jfUK82HGAYQmLNX
YpfHB6jDvRTsFQZVgawhNOwgI+Oa97vKkwYT3t/Nf0cztk5yvpHc3QF0W4BXdYlo
psPoQe6TcQ4pW6nUK/9XOQXyQ+9ewMqSGub+RdmXYnphpIwariLIwm5/jIBFZupx
C871/8jGp3zzmji4rL11h4BhrAkykFt/69gNSBVOsZsVA5s8nnLd0aDGL8s4yb/g
thdQiraBuJ9snqjZjTWlPSW0zxlDAggHlwXydPuYHv2ngpPzfvYHBXbtS+4+VaKT
YKSxAodv5qfshiWw6lNDCDyRj8sORDYvTMI00Ta52do5xx/SYpLKQB2Ua0xFehnb
d66uau+mJTIjiVCt3v8fpemwQ1TS+VDe6Ds1w10ZvTzxi+4IXsOWFcEJW/KVHbL3
mhGPEyx/NB1oE7EejcF6+ZbU1pzJ2b3PterLzT9Jrut0FUk6gQsuMx/71Wme4e2j
o5tKfZ3ltNklHcIg7swI
-----END CERTIFICATE-----
